; ModuleID = '27/1341.c'
source_filename = "27/1341.c"
target datalayout = "e-m:e-p270:32:32-p271:32:32-p272:64:64-i64:64-f80:128-n8:16:32:64-S128"
target triple = "x86_64-pc-linux-gnu"

@.str = private unnamed_addr constant [4 x i8] c"%d\0A\00", align 1
@.str.1 = private unnamed_addr constant [10 x i8] c"%lf%lf%lf\00", align 1
@.str.2 = private unnamed_addr constant [19 x i8] c"x1=%.5lf;x2=%.5lf\0A\00", align 1
@.str.3 = private unnamed_addr constant [13 x i8] c"x1=x2=%.5lf\0A\00", align 1
@.str.4 = private unnamed_addr constant [17 x i8] c"x1=%.5lf+%.5lfi;\00", align 1
@.str.5 = private unnamed_addr constant [17 x i8] c"x2=%.5lf-%.5lfi\0A\00", align 1

; Function Attrs: noinline nounwind uwtable
define dso_local i32 @main() #0 {
  %1 = alloca i32, align 4
  %2 = alloca i32, align 4
  %3 = alloca i32, align 4
  %4 = alloca double, align 8
  %5 = alloca double, align 8
  %6 = alloca double, align 8
  %7 = alloca double, align 8
  %8 = alloca double, align 8
  %9 = alloca double, align 8
  %10 = alloca double, align 8
  %11 = alloca double, align 8
  %12 = alloca double, align 8
  store i32 0, i32* %1, align 4
  %13 = call i32 (i8*, ...) @__isoc99_scanf(i8* getelementptr inbounds ([4 x i8], [4 x i8]* @.str, i64 0, i64 0), i32* %3)
  store i32 1, i32* %2, align 4
  br label %14

14:                                               ; preds = %83, %0
  %15 = load i32, i32* %2, align 4
  %16 = load i32, i32* %3, align 4
  %17 = icmp sle i32 %15, %16
  br i1 %17, label %18, label %86

18:                                               ; preds = %14
  %19 = call i32 (i8*, ...) @__isoc99_scanf(i8* getelementptr inbounds ([10 x i8], [10 x i8]* @.str.1, i64 0, i64 0), double* %4, double* %5, double* %6)
  %20 = load double, double* %5, align 8
  %21 = load double, double* %5, align 8
  %22 = fmul double %20, %21
  %23 = load double, double* %4, align 8
  %24 = fmul double 4.000000e+00, %23
  %25 = load double, double* %6, align 8
  %26 = fmul double %24, %25
  %27 = fsub double %22, %26
  store double %27, double* %12, align 8
  %28 = load double, double* %12, align 8
  %29 = fcmp ogt double %28, 0.000000e+00
  br i1 %29, label %30, label %50

30:                                               ; preds = %18
  %31 = load double, double* %5, align 8
  %32 = fneg double %31
  %33 = load double, double* %12, align 8
  %34 = call double @sqrt(double %33) #3
  %35 = fadd double %32, %34
  %36 = load double, double* %4, align 8
  %37 = fmul double 2.000000e+00, %36
  %38 = fdiv double %35, %37
  store double %38, double* %7, align 8
  %39 = load double, double* %5, align 8
  %40 = fneg double %39
  %41 = load double, double* %12, align 8
  %42 = call double @sqrt(double %41) #3
  %43 = fsub double %40, %42
  %44 = load double, double* %4, align 8
  %45 = fmul double 2.000000e+00, %44
  %46 = fdiv double %43, %45
  store double %46, double* %8, align 8
  %47 = load double, double* %7, align 8
  %48 = load double, double* %8, align 8
  %49 = call i32 (i8*, ...) @printf(i8* getelementptr inbounds ([19 x i8], [19 x i8]* @.str.2, i64 0, i64 0), double %47, double %48)
  br label %50

50:                                               ; preds = %30, %18
  %51 = load double, double* %12, align 8
  %52 = fcmp oeq double %51, 0.000000e+00
  br i1 %52, label %53, label %61

53:                                               ; preds = %50
  %54 = load double, double* %5, align 8
  %55 = fneg double %54
  %56 = load double, double* %4, align 8
  %57 = fmul double 2.000000e+00, %56
  %58 = fdiv double %55, %57
  store double %58, double* %9, align 8
  %59 = load double, double* %9, align 8
  %60 = call i32 (i8*, ...) @printf(i8* getelementptr inbounds ([13 x i8], [13 x i8]* @.str.3, i64 0, i64 0), double %59)
  br label %61

61:                                               ; preds = %53, %50
  %62 = load double, double* %12, align 8
  %63 = fcmp olt double %62, 0.000000e+00
  br i1 %63, label %64, label %82

64:                                               ; preds = %61
  %65 = load double, double* %5, align 8
  %66 = fneg double %65
  %67 = load double, double* %4, align 8
  %68 = fmul double 2.000000e+00, %67
  %69 = fdiv double %66, %68
  store double %69, double* %10, align 8
  %70 = load double, double* %12, align 8
  %71 = fneg double %70
  %72 = call double @sqrt(double %71) #3
  %73 = load double, double* %4, align 8
  %74 = fmul double 2.000000e+00, %73
  %75 = fdiv double %72, %74
  store double %75, double* %11, align 8
  %76 = load double, double* %10, align 8
  %77 = load double, double* %11, align 8
  %78 = call i32 (i8*, ...) @printf(i8* getelementptr inbounds ([17 x i8], [17 x i8]* @.str.4, i64 0, i64 0), double %76, double %77)
  %79 = load double, double* %10, align 8
  %80 = load double, double* %11, align 8
  %81 = call i32 (i8*, ...) @printf(i8* getelementptr inbounds ([17 x i8], [17 x i8]* @.str.5, i64 0, i64 0), double %79, double %80)
  br label %82

82:                                               ; preds = %64, %61
  br label %83

83:                                               ; preds = %82
  %84 = load i32, i32* %2, align 4
  %85 = add nsw i32 %84, 1
  store i32 %85, i32* %2, align 4
  br label %14

86:                                               ; preds = %14
  ret i32 0
}

declare dso_local i32 @__isoc99_scanf(i8*, ...) #1

; Function Attrs: nounwind
declare dso_local double @sqrt(double) #2

declare dso_local i32 @printf(i8*, ...) #1


!llvm.module.flags = !{!0}
!llvm.ident = !{!1}

!0 = !{i32 1, !"wchar_size", i32 4}
!1 = !{!"clang version 10.0.0-4ubuntu1 "}
